target datalayout = "e-m:e-p270:32:32-p271:32:32-p272:64:64-i64:64-i128:128-f80:128-n8:16:32:64-S128"
target triple = "x86_64-pc-linux-gnu"

@last_class = internal global i8 0, align 1
@last_pc = internal global i8 0, align 1
@last_tag = internal global i32 0, align 4

; Function Attrs: null_pointer_is_valid sspstrong uwtable
define i32 @get_ber_identifier(ptr noundef %0, i32 noundef %1, ptr noundef %2, ptr noundef %3, ptr noundef %4) #0 {
  %6 = alloca ptr, align 8
  %7 = alloca i32, align 4
  %8 = alloca ptr, align 8
  %9 = alloca ptr, align 8
  %10 = alloca ptr, align 8
  %11 = alloca i8, align 1
  %12 = alloca i8, align 1
  %13 = alloca i8, align 1
  %14 = alloca i8, align 1
  %15 = alloca i32, align 4
  store ptr %0, ptr %6, align 8
  store i32 %1, ptr %7, align 4
  store ptr %2, ptr %8, align 8
  store ptr %3, ptr %9, align 8
  store ptr %4, ptr %10, align 8
  call void @llvm.lifetime.start.p0(i64 1, ptr %11) #12
  call void @llvm.lifetime.start.p0(i64 1, ptr %12) #12
  call void @llvm.lifetime.start.p0(i64 1, ptr %13) #12
  call void @llvm.lifetime.start.p0(i64 1, ptr %14) #12
  call void @llvm.lifetime.start.p0(i64 4, ptr %15) #12
  %16 = load ptr, ptr %6, align 8
  %17 = load i32, ptr %7, align 4
  %18 = call zeroext i8 @tvb_get_uint8(ptr noundef %16, i32 noundef %17)
  store i8 %18, ptr %11, align 1
  %19 = load i32, ptr %7, align 4
  %20 = add i32 %19, 1
  store i32 %20, ptr %7, align 4
  %21 = load i8, ptr %11, align 1
  %22 = zext i8 %21 to i32
  %23 = ashr i32 %22, 6
  %24 = and i32 %23, 3
  %25 = trunc i32 %24 to i8
  store i8 %25, ptr %13, align 1
  %26 = load i8, ptr %11, align 1
  %27 = zext i8 %26 to i32
  %28 = ashr i32 %27, 5
  %29 = and i32 %28, 1
  %30 = icmp ne i32 %29, 0
  %31 = zext i1 %30 to i8
  store i8 %31, ptr %14, align 1
  %32 = load i8, ptr %11, align 1
  %33 = zext i8 %32 to i32
  %34 = and i32 %33, 31
  store i32 %34, ptr %15, align 4
  %35 = load i32, ptr %15, align 4
  %36 = icmp eq i32 %35, 31
  br i1 %36, label %37, label %63

37:                                               ; preds = %5
  store i32 0, ptr %15, align 4
  br label %38

38:                                               ; preds = %61, %37
  %39 = load ptr, ptr %6, align 8
  %40 = load i32, ptr %7, align 4
  %41 = call i32 @tvb_reported_length_remaining(ptr noundef %39, i32 noundef %40)
  %42 = icmp sgt i32 %41, 0
  br i1 %42, label %43, label %62

43:                                               ; preds = %38
  %44 = load ptr, ptr %6, align 8
  %45 = load i32, ptr %7, align 4
  %46 = call zeroext i8 @tvb_get_uint8(ptr noundef %44, i32 noundef %45)
  store i8 %46, ptr %12, align 1
  %47 = load i32, ptr %7, align 4
  %48 = add i32 %47, 1
  store i32 %48, ptr %7, align 4
  %49 = load i32, ptr %15, align 4
  %50 = shl i32 %49, 7
  store i32 %50, ptr %15, align 4
  %51 = load i8, ptr %12, align 1
  %52 = zext i8 %51 to i32
  %53 = and i32 %52, 127
  %54 = load i32, ptr %15, align 4
  %55 = or i32 %54, %53
  store i32 %55, ptr %15, align 4
  %56 = load i8, ptr %12, align 1
  %57 = zext i8 %56 to i32
  %58 = and i32 %57, 128
  %59 = icmp ne i32 %58, 0
  br i1 %59, label %61, label %60

60:                                               ; preds = %43
  br label %62

61:                                               ; preds = %43
  br label %38, !llvm.loop !13

62:                                               ; preds = %60, %38
  br label %63

63:                                               ; preds = %62, %5
  %64 = load ptr, ptr %8, align 8
  %65 = icmp ne ptr %64, null
  br i1 %65, label %66, label %69

66:                                               ; preds = %63
  %67 = load i8, ptr %13, align 1
  %68 = load ptr, ptr %8, align 8
  store i8 %67, ptr %68, align 1
  br label %69

69:                                               ; preds = %66, %63
  %70 = load ptr, ptr %9, align 8
  %71 = icmp ne ptr %70, null
  br i1 %71, label %72, label %77

72:                                               ; preds = %69
  %73 = load i8, ptr %14, align 1, !range !6, !noundef !7
  %74 = trunc i8 %73 to i1
  %75 = load ptr, ptr %9, align 8
  %76 = zext i1 %74 to i8
  store i8 %76, ptr %75, align 1
  br label %77

77:                                               ; preds = %72, %69
  %78 = load ptr, ptr %10, align 8
  %79 = icmp ne ptr %78, null
  br i1 %79, label %80, label %83

80:                                               ; preds = %77
  %81 = load i32, ptr %15, align 4
  %82 = load ptr, ptr %10, align 8
  store i32 %81, ptr %82, align 4
  br label %83

83:                                               ; preds = %80, %77
  %84 = load i8, ptr %13, align 1
  store i8 %84, ptr @last_class, align 1
  %85 = load i8, ptr %14, align 1, !range !6, !noundef !7
  %86 = trunc i8 %85 to i1
  %87 = zext i1 %86 to i8
  store i8 %87, ptr @last_pc, align 1
  %88 = load i32, ptr %15, align 4
  store i32 %88, ptr @last_tag, align 4
  %89 = load i32, ptr %7, align 4
  call void @llvm.lifetime.end.p0(i64 4, ptr %15) #12
  call void @llvm.lifetime.end.p0(i64 1, ptr %14) #12
  call void @llvm.lifetime.end.p0(i64 1, ptr %13) #12
  call void @llvm.lifetime.end.p0(i64 1, ptr %12) #12
  call void @llvm.lifetime.end.p0(i64 1, ptr %11) #12
  ret i32 %89
}