; Function Attrs: null_pointer_is_valid sspstrong uwtable
define noundef i32 @get_ber_identifier(ptr noundef %0, i32 noundef %1, ptr noundef writeonly captures(address_is_null) %2, ptr noundef writeonly captures(address_is_null) %3, ptr noundef writeonly captures(address_is_null) %4) local_unnamed_addr #0 {
  %6 = tail call zeroext i8 @tvb_get_uint8(ptr noundef %0, i32 noundef %1)
  %7 = add i32 %1, 1
  %8 = lshr i8 %6, 6
  %9 = lshr i8 %6, 5
  %.lobit = and i8 %9, 1
  %10 = and i8 %6, 31
  %11 = zext nneg i8 %10 to i32
  %12 = icmp eq i8 %10, 31
  br i1 %12, label %.preheader, label %.loopexit

.preheader:                                       ; preds = %5, %15
  %.129 = phi i32 [ %17, %15 ], [ %7, %5 ]
  %.1 = phi i32 [ %21, %15 ], [ 0, %5 ]
  %13 = tail call i32 @tvb_reported_length_remaining(ptr noundef %0, i32 noundef %.129)
  %14 = icmp sgt i32 %13, 0
  br i1 %14, label %15, label %.loopexit

15:                                               ; preds = %.preheader
  %16 = tail call zeroext i8 @tvb_get_uint8(ptr noundef %0, i32 noundef %.129)
  %17 = add i32 %.129, 1
  %18 = shl i32 %.1, 7
  %19 = and i8 %16, 127
  %20 = zext nneg i8 %19 to i32
  %21 = or disjoint i32 %18, %20
  %.not = icmp sgt i8 %16, -1
  br i1 %.not, label %.loopexit, label %.preheader, !llvm.loop !6

.loopexit:                                        ; preds = %.preheader, %15, %5
  %.028 = phi i32 [ %7, %5 ], [ %.129, %.preheader ], [ %17, %15 ]
  %.0 = phi i32 [ %11, %5 ], [ %.1, %.preheader ], [ %21, %15 ]
  %.not34 = icmp eq ptr %2, null
  br i1 %.not34, label %23, label %22

22:                                               ; preds = %.loopexit
  store i8 %8, ptr %2, align 1
  br label %23

23:                                               ; preds = %22, %.loopexit
  %.not35 = icmp eq ptr %3, null
  br i1 %.not35, label %25, label %24

24:                                               ; preds = %23
  store i8 %.lobit, ptr %3, align 1
  br label %25

25:                                               ; preds = %24, %23
  %.not36 = icmp eq ptr %4, null
  br i1 %.not36, label %27, label %26

26:                                               ; preds = %25
  store i32 %.0, ptr %4, align 4
  br label %27

27:                                               ; preds = %26, %25
  store i8 %8, ptr @last_class, align 1
  store i8 %.lobit, ptr @last_pc, align 1
  store i32 %.0, ptr @last_tag, align 4
  ret i32 %.028
}